target datalayout = "e-m:e-p270:32:32-p271:32:32-p272:64:64-i64:64-i128:128-f80:128-n8:16:32:64-S128"
target triple = "x86_64-pc-linux-gnu"

%struct.expert_field = type { i32, i32 }
%struct._packet_info = type { ptr, ptr, i32, i32, %struct.nstime_t, %struct.nstime_t, %struct.nstime_t, i32, ptr, ptr, ptr, ptr, %struct._address, %struct._address, %struct._address, %struct._address, %struct._address, %struct._address, i32, ptr, i32, %struct.anon, i32, i32, i32, i32, ptr, i32, ptr, ptr, i16, i16, i32, i32, i16, i32, i32, ptr, ptr, ptr, i8, i8, i16, i16, i16, i32, i16, i16, ptr, ptr, ptr, ptr, ptr, i32 }
%struct.nstime_t = type { i64, i32 }
%struct._address = type { i32, i32, ptr, ptr }
%struct.anon = type { i8, [3 x i8] }

@hf_ubx_preamble = internal global i32 0, align 4
@hf_ubx_msg_class_id = internal global i32 0, align 4
@hf_ubx_payload_len = internal global i32 0, align 4
@hf_ubx_chksum = internal global i32 0, align 4
@ei_ubx_chksum = internal global %struct.expert_field zeroinitializer, align 4
@ett_ubx = internal global i32 0, align 4
@.str.527 = private unnamed_addr constant [4 x i8] c"UBX\00", align 1
@proto_ubx = internal global i32 0, align 4
@ubx_class_id_dissector_table = internal global ptr null, align 8

; Function Attrs: nounwind uwtable
define internal zeroext i16 @chksum_fletcher_8(ptr noundef %0, i32 noundef %1) #0 {
  %3 = alloca ptr, align 8
  %4 = alloca i32, align 4
  %5 = alloca i8, align 1
  %6 = alloca i8, align 1
  %7 = alloca i32, align 4
  store ptr %0, ptr %3, align 8
  store i32 %1, ptr %4, align 4
  store i8 0, ptr %5, align 1
  store i8 0, ptr %6, align 1
  store i32 0, ptr %7, align 4
  br label %8

8:                                                ; preds = %29, %2
  %9 = load i32, ptr %7, align 4
  %10 = load i32, ptr %4, align 4
  %11 = icmp slt i32 %9, %10
  br i1 %11, label %12, label %32

12:                                               ; preds = %8
  %13 = load ptr, ptr %3, align 8
  %14 = load i32, ptr %7, align 4
  %15 = sext i32 %14 to i64
  %16 = getelementptr i8, ptr %13, i64 %15
  %17 = load i8, ptr %16, align 1
  %18 = zext i8 %17 to i32
  %19 = load i8, ptr %5, align 1
  %20 = zext i8 %19 to i32
  %21 = add i32 %20, %18
  %22 = trunc i32 %21 to i8
  store i8 %22, ptr %5, align 1
  %23 = load i8, ptr %5, align 1
  %24 = zext i8 %23 to i32
  %25 = load i8, ptr %6, align 1
  %26 = zext i8 %25 to i32
  %27 = add i32 %26, %24
  %28 = trunc i32 %27 to i8
  store i8 %28, ptr %6, align 1
  br label %29

29:                                               ; preds = %12
  %30 = load i32, ptr %7, align 4
  %31 = add i32 %30, 1
  store i32 %31, ptr %7, align 4
  br label %8, !llvm.loop !17

32:                                               ; preds = %8
  %33 = load i8, ptr %6, align 1
  %34 = zext i8 %33 to i32
  %35 = shl i32 %34, 8
  %36 = load i8, ptr %5, align 1
  %37 = zext i8 %36 to i32
  %38 = or i32 %35, %37
  %39 = trunc i32 %38 to i16
  ret i16 %39
}

; Function Attrs: nounwind uwtable
define internal i32 @dissect_ubx(ptr noundef %0, ptr noundef %1, ptr noundef %2, ptr noundef %3) #0 {
  %5 = alloca ptr, align 8
  %6 = alloca ptr, align 8
  %7 = alloca ptr, align 8
  %8 = alloca ptr, align 8
  %9 = alloca ptr, align 8
  %10 = alloca i32, align 4
  %11 = alloca i32, align 4
  %12 = alloca i32, align 4
  %13 = alloca ptr, align 8
  %14 = alloca ptr, align 8
  store ptr %0, ptr %5, align 8
  store ptr %1, ptr %6, align 8
  store ptr %2, ptr %7, align 8
  store ptr %3, ptr %8, align 8
  %15 = load ptr, ptr %6, align 8
  %16 = getelementptr inbounds %struct._packet_info, ptr %15, i32 0, i32 1
  %17 = load ptr, ptr %16, align 8
  call void @col_set_str(ptr noundef %17, i32 noundef 34, ptr noundef @.str.527)
  %18 = load ptr, ptr %6, align 8
  %19 = getelementptr inbounds %struct._packet_info, ptr %18, i32 0, i32 1
  %20 = load ptr, ptr %19, align 8
  call void @col_clear(ptr noundef %20, i32 noundef 25)
  %21 = load ptr, ptr %5, align 8
  %22 = call zeroext i16 @tvb_get_guint16(ptr noundef %21, i32 noundef 4, i32 noundef -2147483648)
  %23 = zext i16 %22 to i32
  store i32 %23, ptr %11, align 4
  %24 = load ptr, ptr %7, align 8
  %25 = load i32, ptr @proto_ubx, align 4
  %26 = load ptr, ptr %5, align 8
  %27 = load i32, ptr %11, align 4
  %28 = add i32 6, %27
  %29 = add i32 %28, 2
  %30 = call ptr @proto_tree_add_item(ptr noundef %24, i32 noundef %25, ptr noundef %26, i32 noundef 0, i32 noundef %29, i32 noundef 0)
  store ptr %30, ptr %13, align 8
  %31 = load ptr, ptr %13, align 8
  %32 = load i32, ptr @ett_ubx, align 4
  %33 = call ptr @proto_item_add_subtree(ptr noundef %31, i32 noundef %32)
  store ptr %33, ptr %14, align 8
  %34 = load ptr, ptr %14, align 8
  %35 = load i32, ptr @hf_ubx_preamble, align 4
  %36 = load ptr, ptr %5, align 8
  %37 = call ptr @proto_tree_add_item(ptr noundef %34, i32 noundef %35, ptr noundef %36, i32 noundef 0, i32 noundef 2, i32 noundef 0)
  %38 = load ptr, ptr %14, align 8
  %39 = load i32, ptr @hf_ubx_msg_class_id, align 4
  %40 = load ptr, ptr %5, align 8
  %41 = call ptr @proto_tree_add_item_ret_uint(ptr noundef %38, i32 noundef %39, ptr noundef %40, i32 noundef 2, i32 noundef 2, i32 noundef 0, ptr noundef %10)
  %42 = load ptr, ptr %14, align 8
  %43 = load i32, ptr @hf_ubx_payload_len, align 4
  %44 = load ptr, ptr %5, align 8
  %45 = call ptr @proto_tree_add_item(ptr noundef %42, i32 noundef %43, ptr noundef %44, i32 noundef 4, i32 noundef 2, i32 noundef -2147483648)
  %46 = load ptr, ptr %6, align 8
  %47 = getelementptr inbounds %struct._packet_info, ptr %46, i32 0, i32 50
  %48 = load ptr, ptr %47, align 8
  %49 = load ptr, ptr %5, align 8
  %50 = load i32, ptr %11, align 4
  %51 = add i32 6, %50
  %52 = sub i32 %51, 2
  %53 = zext i32 %52 to i64
  %54 = call ptr @tvb_memdup(ptr noundef %48, ptr noundef %49, i32 noundef 2, i64 noundef %53)
  %55 = load i32, ptr %11, align 4
  %56 = add i32 6, %55
  %57 = sub i32 %56, 2
  %58 = call zeroext i16 @chksum_fletcher_8(ptr noundef %54, i32 noundef %57)
  %59 = zext i16 %58 to i32
  store i32 %59, ptr %12, align 4
  %60 = load ptr, ptr %14, align 8
  %61 = load ptr, ptr %5, align 8
  %62 = load i32, ptr %11, align 4
  %63 = add i32 6, %62
  %64 = load i32, ptr @hf_ubx_chksum, align 4
  %65 = load i32, ptr %12, align 4
  %66 = call ptr @proto_tree_add_checksum(ptr noundef %60, ptr noundef %61, i32 noundef %63, i32 noundef %64, i32 noundef -1, ptr noundef @ei_ubx_chksum, ptr noundef null, i32 noundef %65, i32 noundef -2147483648, i32 noundef 1)
  %67 = load ptr, ptr %5, align 8
  %68 = load i32, ptr %11, align 4
  %69 = call ptr @tvb_new_subset_length(ptr noundef %67, i32 noundef 6, i32 noundef %68)
  store ptr %69, ptr %9, align 8
  %70 = load ptr, ptr @ubx_class_id_dissector_table, align 8
  %71 = load i32, ptr %10, align 4
  %72 = load ptr, ptr %9, align 8
  %73 = load ptr, ptr %6, align 8
  %74 = load ptr, ptr %7, align 8
  %75 = call i32 @dissector_try_uint(ptr noundef %70, i32 noundef %71, ptr noundef %72, ptr noundef %73, ptr noundef %74)
  %76 = icmp ne i32 %75, 0
  br i1 %76, label %82, label %77

77:                                               ; preds = %4
  %78 = load ptr, ptr %9, align 8
  %79 = load ptr, ptr %6, align 8
  %80 = load ptr, ptr %7, align 8
  %81 = call i32 @call_data_dissector(ptr noundef %78, ptr noundef %79, ptr noundef %80)
  br label %82

82:                                               ; preds = %77, %4
  %83 = load ptr, ptr %5, align 8
  %84 = call i32 @tvb_captured_length(ptr noundef %83)
  ret i32 %84
}