; Function Attrs: nounwind uwtable
define internal i32 @dissect_ubx(ptr noundef %0, ptr noundef %1, ptr noundef %2, ptr readnone captures(none) %3) #0 {
  %5 = alloca i32, align 4
  %6 = getelementptr inbounds nuw i8, ptr %1, i64 8
  %7 = load ptr, ptr %6, align 8
  tail call void @col_set_str(ptr noundef %7, i32 noundef 34, ptr noundef nonnull @.str.527) #5
  %8 = load ptr, ptr %6, align 8
  tail call void @col_clear(ptr noundef %8, i32 noundef 25) #5
  %9 = tail call zeroext i16 @tvb_get_guint16(ptr noundef %0, i32 noundef 4, i32 noundef -2147483648) #5
  %10 = zext i16 %9 to i32
  %11 = load i32, ptr @proto_ubx, align 4
  %12 = add nuw nsw i32 %10, 8
  %13 = tail call ptr @proto_tree_add_item(ptr noundef %2, i32 noundef %11, ptr noundef %0, i32 noundef 0, i32 noundef %12, i32 noundef 0) #5
  %14 = load i32, ptr @ett_ubx, align 4
  %15 = tail call ptr @proto_item_add_subtree(ptr noundef %13, i32 noundef %14) #5
  %16 = load i32, ptr @hf_ubx_preamble, align 4
  %17 = tail call ptr @proto_tree_add_item(ptr noundef %15, i32 noundef %16, ptr noundef %0, i32 noundef 0, i32 noundef 2, i32 noundef 0) #5
  %18 = load i32, ptr @hf_ubx_msg_class_id, align 4
  %19 = call ptr @proto_tree_add_item_ret_uint(ptr noundef %15, i32 noundef %18, ptr noundef %0, i32 noundef 2, i32 noundef 2, i32 noundef 0, ptr noundef nonnull %5) #5
  %20 = load i32, ptr @hf_ubx_payload_len, align 4
  %21 = call ptr @proto_tree_add_item(ptr noundef %15, i32 noundef %20, ptr noundef %0, i32 noundef 4, i32 noundef 2, i32 noundef -2147483648) #5
  %22 = getelementptr inbounds nuw i8, ptr %1, i64 408
  %23 = load ptr, ptr %22, align 8
  %24 = add nuw nsw i32 %10, 4
  %25 = zext nneg i32 %24 to i64
  %26 = call ptr @tvb_memdup(ptr noundef %23, ptr noundef %0, i32 noundef 2, i64 noundef %25) #5
  br label %27

27:                                               ; preds = %27, %4
  %indvars.iv.i = phi i64 [ 0, %4 ], [ %indvars.iv.next.i, %27 ]
  %.0912.i = phi i8 [ 0, %4 ], [ %31, %27 ]
  %.01011.i = phi i8 [ 0, %4 ], [ %30, %27 ]
  %28 = getelementptr i8, ptr %26, i64 %indvars.iv.i
  %29 = load i8, ptr %28, align 1
  %30 = add i8 %29, %.01011.i
  %31 = add i8 %30, %.0912.i
  %indvars.iv.next.i = add nuw nsw i64 %indvars.iv.i, 1
  %exitcond.not.i = icmp eq i64 %indvars.iv.next.i, %25
  br i1 %exitcond.not.i, label %chksum_fletcher_8.exit, label %27, !llvm.loop !10

chksum_fletcher_8.exit:                           ; preds = %27
  %32 = add nuw nsw i32 %10, 6
  %33 = zext i8 %31 to i32
  %34 = shl nuw nsw i32 %33, 8
  %35 = zext i8 %30 to i32
  %36 = or disjoint i32 %34, %35
  %37 = load i32, ptr @hf_ubx_chksum, align 4
  %38 = call ptr @proto_tree_add_checksum(ptr noundef %15, ptr noundef %0, i32 noundef %32, i32 noundef %37, i32 noundef -1, ptr noundef nonnull @ei_ubx_chksum, ptr noundef null, i32 noundef %36, i32 noundef -2147483648, i32 noundef 1) #5
  %39 = call ptr @tvb_new_subset_length(ptr noundef %0, i32 noundef 6, i32 noundef %10) #5
  %40 = load ptr, ptr @ubx_class_id_dissector_table, align 8
  %41 = load i32, ptr %5, align 4
  %42 = call i32 @dissector_try_uint(ptr noundef %40, i32 noundef %41, ptr noundef %39, ptr noundef %1, ptr noundef %2) #5
  %.not = icmp eq i32 %42, 0
  br i1 %.not, label %43, label %45

43:                                               ; preds = %chksum_fletcher_8.exit
  %44 = call i32 @call_data_dissector(ptr noundef %39, ptr noundef %1, ptr noundef %2) #5
  br label %45

45:                                               ; preds = %43, %chksum_fletcher_8.exit
  %46 = call i32 @tvb_captured_length(ptr noundef %0) #5
  ret i32 %46
}